; Function Attrs: mustprogress nofree norecurse nosync nounwind memory(read, argmem: readwrite, inaccessiblemem: none) uwtable
define void @_ZN18OpenImageIO_v2_6_012convert_typeI4halffEEvPKT_PT0_mS5_S5_(ptr noundef readonly captures(none) %src, ptr noundef writeonly captures(none) %dst, i64 noundef %n, float noundef %0, float noundef %1) local_unnamed_addr #3 {
entry:
  %h.i.i = alloca %"class.OpenImageIO_v2_6_0::simd::vint4", align 16
  %cmp7 = icmp ugt i64 %n, 3
  br i1 %cmp7, label %for.body, label %while.cond.preheader

while.cond.preheader:                             ; preds = %_ZN18OpenImageIO_v2_6_04simd7vfloat4C2EPK4half.exit, %entry
  %n.addr.0.lcssa = phi i64 [ %n, %entry ], [ %sub, %_ZN18OpenImageIO_v2_6_04simd7vfloat4C2EPK4half.exit ]
  %dst.addr.0.lcssa = phi ptr [ %dst, %entry ], [ %add.ptr2, %_ZN18OpenImageIO_v2_6_04simd7vfloat4C2EPK4half.exit ]
  %src.addr.0.lcssa = phi ptr [ %src, %entry ], [ %add.ptr, %_ZN18OpenImageIO_v2_6_04simd7vfloat4C2EPK4half.exit ]
  %tobool.not13 = icmp eq i64 %n.addr.0.lcssa, 0
  br i1 %tobool.not13, label %while.end, label %while.body

for.body:                                         ; preds = %entry, %_ZN18OpenImageIO_v2_6_04simd7vfloat4C2EPK4half.exit
  %src.addr.010 = phi ptr [ %add.ptr, %_ZN18OpenImageIO_v2_6_04simd7vfloat4C2EPK4half.exit ], [ %src, %entry ]
  %dst.addr.09 = phi ptr [ %add.ptr2, %_ZN18OpenImageIO_v2_6_04simd7vfloat4C2EPK4half.exit ], [ %dst, %entry ]
  %n.addr.08 = phi i64 [ %sub, %_ZN18OpenImageIO_v2_6_04simd7vfloat4C2EPK4half.exit ], [ %n, %entry ]
  call void @llvm.lifetime.start.p0(i64 16, ptr nonnull %h.i.i)
  br label %for.body.i.i

for.body.i.i:                                     ; preds = %for.body.i.i, %for.body
  %indvars.iv.i = phi i64 [ 0, %for.body ], [ %indvars.iv.next.i, %for.body.i.i ]
  %arrayidx.i.i = getelementptr inbounds nuw i16, ptr %src.addr.010, i64 %indvars.iv.i
  %2 = load i16, ptr %arrayidx.i.i, align 2
  %conv.i.i = zext i16 %2 to i32
  %arrayidx3.i.i = getelementptr inbounds nuw [4 x i32], ptr %h.i.i, i64 0, i64 %indvars.iv.i
  store i32 %conv.i.i, ptr %arrayidx3.i.i, align 4
  %indvars.iv.next.i = add nuw nsw i64 %indvars.iv.i, 1
  %exitcond.not.i = icmp eq i64 %indvars.iv.next.i, 4
  br i1 %exitcond.not.i, label %_ZN18OpenImageIO_v2_6_04simd7vfloat4C2EPK4half.exit, label %for.body.i.i, !llvm.loop !4

_ZN18OpenImageIO_v2_6_04simd7vfloat4C2EPK4half.exit: ; preds = %for.body.i.i
  %3 = load <4 x i32>, ptr %h.i.i, align 16
  %4 = and <4 x i32> %3, splat (i32 32767)
  %5 = shl nuw nsw <4 x i32> %4, splat (i32 13)
  %6 = bitcast <4 x i32> %5 to <4 x float>
  %mul.i.i = fmul <4 x float> %6, splat (float 0x46F0000000000000)
  %cmp.i.i = icmp samesign ugt <4 x i32> %4, splat (i32 31743)
  %7 = shl <4 x i32> %3, splat (i32 16)
  %8 = and <4 x i32> %7, splat (i32 -2147483648)
  %and.i18.i = select <4 x i1> %cmp.i.i, <4 x i32> splat (i32 2139095040), <4 x i32> zeroinitializer
  %or.i23.i = or disjoint <4 x i32> %and.i18.i, %8
  %9 = bitcast <4 x float> %mul.i.i to <4 x i32>
  %or.i.i = or <4 x i32> %or.i23.i, %9
  call void @llvm.lifetime.end.p0(i64 16, ptr nonnull %h.i.i)
  store <4 x i32> %or.i.i, ptr %dst.addr.09, align 1
  %sub = add i64 %n.addr.08, -4
  %add.ptr = getelementptr inbounds nuw i8, ptr %src.addr.010, i64 8
  %add.ptr2 = getelementptr inbounds nuw i8, ptr %dst.addr.09, i64 16
  %cmp = icmp ugt i64 %sub, 3
  br i1 %cmp, label %for.body, label %while.cond.preheader, !llvm.loop !6

while.body:                                       ; preds = %while.cond.preheader, %while.body
  %src.addr.116 = phi ptr [ %incdec.ptr, %while.body ], [ %src.addr.0.lcssa, %while.cond.preheader ]
  %dst.addr.115 = phi ptr [ %incdec.ptr3, %while.body ], [ %dst.addr.0.lcssa, %while.cond.preheader ]
  %n.addr.114 = phi i64 [ %dec, %while.body ], [ %n.addr.0.lcssa, %while.cond.preheader ]
  %dec = add i64 %n.addr.114, -1
  %incdec.ptr = getelementptr inbounds nuw i8, ptr %src.addr.116, i64 2
  %10 = load i16, ptr %src.addr.116, align 2
  %idxprom.i = zext i16 %10 to i64
  %arrayidx.i = getelementptr inbounds nuw [65536 x %"union.half::uif"], ptr @_ZN4half8_toFloatE, i64 0, i64 %idxprom.i
  %11 = load float, ptr %arrayidx.i, align 4
  %incdec.ptr3 = getelementptr inbounds nuw i8, ptr %dst.addr.115, i64 4
  store float %11, ptr %dst.addr.115, align 4
  %tobool.not = icmp eq i64 %dec, 0
  br i1 %tobool.not, label %while.end, label %while.body, !llvm.loop !7

while.end:                                        ; preds = %while.body, %while.cond.preheader
  ret void
}